; Function Attrs: mustprogress nounwind uwtable
define dso_local void @_ZN4llvm31DXILMetadataAnalysisWrapperPass13releaseMemoryEv(ptr nocapture noundef nonnull align 8 dereferenceable(40) %0) unnamed_addr #0 align 2 {
  %2 = getelementptr inbounds nuw i8, ptr %0, i64 32
  %3 = load ptr, ptr %2, align 8
  store ptr null, ptr %2, align 8
  %.not.i.i = icmp eq ptr %3, null
  br i1 %.not.i.i, label %_ZNSt10unique_ptrIN4llvm4dxil18ModuleMetadataInfoESt14default_deleteIS2_EE5resetEPS2_.exit, label %4

4:                                                ; preds = %1
  %5 = getelementptr inbounds nuw i8, ptr %3, i64 56
  %6 = tail call noundef i64 @_ZNK4llvm15SmallVectorBaseIjE4sizeEv(ptr noundef nonnull align 8 dereferenceable(16) %5) #12
  %7 = load ptr, ptr %5, align 8
  %8 = getelementptr inbounds i8, ptr %3, i64 72
  %9 = icmp eq ptr %7, %8
  br i1 %9, label %_ZNKSt14default_deleteIN4llvm4dxil18ModuleMetadataInfoEEclEPS2_.exit.i.i, label %10

10:                                               ; preds = %4
  tail call void @free(ptr noundef %7) #12
  br label %_ZNKSt14default_deleteIN4llvm4dxil18ModuleMetadataInfoEEclEPS2_.exit.i.i

_ZNKSt14default_deleteIN4llvm4dxil18ModuleMetadataInfoEEclEPS2_.exit.i.i: ; preds = %10, %4
  tail call void @_ZdlPvm(ptr noundef nonnull %3, i64 noundef 120) #14
  br label %_ZNSt10unique_ptrIN4llvm4dxil18ModuleMetadataInfoESt14default_deleteIS2_EE5resetEPS2_.exit

_ZNSt10unique_ptrIN4llvm4dxil18ModuleMetadataInfoESt14default_deleteIS2_EE5resetEPS2_.exit: ; preds = %1, %_ZNKSt14default_deleteIN4llvm4dxil18ModuleMetadataInfoEEclEPS2_.exit.i.i
  ret void
}